target datalayout = "e-m:e-p270:32:32-p271:32:32-p272:64:64-i64:64-i128:128-f80:128-n8:16:32:64-S128"
target triple = "x86_64-pc-linux-gnu"

%struct._GLFWlibrary = type { i32, %struct.GLFWallocator, %struct._GLFWplatform, %struct.anon, ptr, ptr, ptr, ptr, i32, i32, [16 x %struct._GLFWjoystick], ptr, i32, %struct._GLFWtls, %struct._GLFWtls, %struct._GLFWmutex, %struct.anon.8, %struct.anon.9, %struct.anon.10, %struct.anon.11, %struct.anon.12, %struct._GLFWlibraryWayland, %struct._GLFWlibraryX11, %struct._GLFWlibraryNull, %struct._GLFWlibraryGLX, %struct._GLFWlibraryLinux }
%struct.GLFWallocator = type { ptr, ptr, ptr, ptr }
%struct._GLFWplatform = type { i32, ptr, ptr, ptr, ptr, ptr, ptr, ptr, ptr, ptr, ptr, ptr, ptr, ptr, ptr, ptr, ptr, ptr, ptr, ptr, ptr, ptr, ptr, ptr, ptr, ptr, ptr, ptr, ptr, ptr, ptr, ptr, ptr, ptr, ptr, ptr, ptr, ptr, ptr, ptr, ptr, ptr, ptr, ptr, ptr, ptr, ptr, ptr, ptr, ptr, ptr, ptr, ptr, ptr, ptr, ptr, ptr, ptr, ptr, ptr, ptr, ptr, ptr, ptr, ptr, ptr, ptr, ptr, ptr, ptr, ptr, ptr }
%struct.anon = type { %struct._GLFWinitconfig, %struct._GLFWfbconfig, %struct._GLFWwndconfig, %struct._GLFWctxconfig, i32 }
%struct._GLFWinitconfig = type { i32, i32, i32, ptr, %struct.anon.0, %struct.anon.1, %struct.anon.2 }
%struct.anon.0 = type { i32, i32 }
%struct.anon.1 = type { i32 }
%struct.anon.2 = type { i32 }
%struct._GLFWfbconfig = type { i32, i32, i32, i32, i32, i32, i32, i32, i32, i32, i32, i32, i32, i32, i32, i32, i64 }
%struct._GLFWwndconfig = type { i32, i32, i32, i32, ptr, i32, i32, i32, i32, i32, i32, i32, i32, i32, i32, i32, i32, %struct.anon.3, %struct.anon.4, %struct.anon.5, %struct.anon.6 }
%struct.anon.3 = type { [256 x i8] }
%struct.anon.4 = type { [256 x i8], [256 x i8] }
%struct.anon.5 = type { i32, i32 }
%struct.anon.6 = type { [256 x i8] }
%struct._GLFWctxconfig = type { i32, i32, i32, i32, i32, i32, i32, i32, i32, i32, ptr, %struct.anon.7 }
%struct.anon.7 = type { i32 }
%struct._GLFWjoystick = type { i32, i32, ptr, i32, ptr, i32, ptr, i32, [128 x i8], ptr, [33 x i8], ptr, %struct._GLFWjoystickLinux }
%struct._GLFWjoystickLinux = type { i32, [4096 x i8], [512 x i32], [64 x i32], [64 x %struct.input_absinfo], [4 x [2 x i32]] }
%struct.input_absinfo = type { i32, i32, i32, i32, i32, i32 }
%struct._GLFWtls = type { %struct._GLFWtlsPOSIX }
%struct._GLFWtlsPOSIX = type { i32, i32 }
%struct._GLFWmutex = type { %struct._GLFWmutexPOSIX }
%struct._GLFWmutexPOSIX = type { i32, %union.pthread_mutex_t }
%union.pthread_mutex_t = type { %struct.__pthread_mutex_s }
%struct.__pthread_mutex_s = type { i32, i32, i32, i32, i32, i16, i16, %struct.__pthread_internal_list }
%struct.__pthread_internal_list = type { ptr, ptr }
%struct.anon.8 = type { i64, %struct._GLFWtimerPOSIX }
%struct._GLFWtimerPOSIX = type { i32, i64 }
%struct.anon.9 = type { i32, ptr, i32, i32, i32, i32, i32, i32, i32, i32, i32, i32, i32, i32, i32, i32, i32, i32, i32, i32, ptr, ptr, ptr, ptr, ptr, ptr, ptr, ptr, ptr, ptr, ptr, ptr, ptr, ptr, ptr, ptr, ptr, ptr, ptr }
%struct.anon.10 = type { ptr, ptr, ptr, ptr, ptr, ptr, ptr, ptr }
%struct.anon.11 = type { i32, ptr, [2 x ptr], ptr, i32, i32, i32, i32, i32, i32, i32 }
%struct.anon.12 = type { ptr, ptr }
%struct._GLFWlibraryWayland = type { ptr, ptr, ptr, ptr, ptr, ptr, ptr, ptr, ptr, ptr, ptr, ptr, ptr, ptr, ptr, ptr, ptr, ptr, ptr, i32, ptr, ptr, ptr, ptr, i32, ptr, ptr, ptr, ptr, ptr, i32, i32, i32, i32, i32, i32, i32, ptr, [256 x i16], [349 x i16], [349 x [5 x i8]], %struct.anon.13, ptr, ptr, %struct.anon.14, %struct.anon.15, %struct.anon.16, %struct.anon.17 }
%struct.anon.13 = type { ptr, ptr, ptr, ptr, ptr, i32, i32, i32, i32, i32, i32, i32, ptr, ptr, ptr, ptr, ptr, ptr, ptr, ptr, ptr, ptr, ptr, ptr, ptr, ptr, ptr, ptr, ptr, ptr, ptr, ptr }
%struct.anon.14 = type { ptr, ptr, ptr, ptr, ptr, ptr, ptr, ptr, ptr, ptr, ptr, ptr, ptr, ptr, ptr, ptr, ptr, ptr, ptr, ptr }
%struct.anon.15 = type { ptr, ptr, ptr, ptr, ptr }
%struct.anon.16 = type { ptr, ptr, ptr, ptr }
%struct.anon.17 = type { ptr, ptr, ptr, i32, ptr, ptr, ptr, ptr, ptr, ptr, ptr, ptr, ptr, ptr, ptr, ptr, ptr, ptr, ptr, ptr, ptr, ptr, ptr, ptr, ptr, ptr, ptr, ptr, ptr }
%struct._GLFWlibraryX11 = type { ptr, i32, i64, float, float, i64, i64, i32, ptr, ptr, i32, ptr, ptr, [349 x [5 x i8]], [256 x i16], [349 x i16], double, double, ptr, [2 x i32], i64, i64, i64, i64, i64, i64, i64, i64, i64, i64, i64, i64, i64, i64, i64, i64, i64, i64, i64, i64, i64, i64, i64, i64, i64, i64, i64, i64, i64, i64, i64, i64, i64, i64, i64, i64, i64, i64, i64, i64, i64, i64, i64, i64, i64, i64, i64, i64, i64, i64, %struct.anon.18, %struct.anon.19, %struct.anon.20, %struct.anon.21, %struct.anon.22, %struct.anon.23, %struct.anon.24, %struct.anon.25, %struct.anon.26, %struct.anon.27, %struct.anon.28, %struct.anon.29, %struct.anon.30 }
%struct.anon.18 = type { ptr, i32, ptr, ptr, ptr, ptr, ptr, ptr, ptr, ptr, ptr, ptr, ptr, ptr, ptr, ptr, ptr, ptr, ptr, ptr, ptr, ptr, ptr, ptr, ptr, ptr, ptr, ptr, ptr, ptr, ptr, ptr, ptr, ptr, ptr, ptr, ptr, ptr, ptr, ptr, ptr, ptr, ptr, ptr, ptr, ptr, ptr, ptr, ptr, ptr, ptr, ptr, ptr, ptr, ptr, ptr, ptr, ptr, ptr, ptr, ptr, ptr, ptr, ptr, ptr, ptr, ptr, ptr, ptr, ptr, ptr, ptr, ptr, ptr, ptr, ptr, ptr, ptr, ptr, ptr, ptr, ptr, ptr, ptr, ptr, ptr, ptr, ptr }
%struct.anon.19 = type { ptr, ptr, ptr, ptr }
%struct.anon.20 = type { i32, ptr, i32, i32, i32, i32, i32, i32, ptr, ptr, ptr, ptr, ptr, ptr, ptr, ptr, ptr, ptr, ptr, ptr, ptr, ptr, ptr, ptr, ptr }
%struct.anon.21 = type { i32, i32, i32, i32, i32, i32, i32, i32, ptr, ptr, ptr, ptr, ptr, ptr, ptr, ptr, ptr }
%struct.anon.22 = type { i32, i32, i32, i32, i32 }
%struct.anon.23 = type { i32, i64, i64 }
%struct.anon.24 = type { ptr, ptr, ptr, ptr, ptr, ptr, ptr }
%struct.anon.25 = type { i32, ptr, i32, i32, ptr, ptr, ptr }
%struct.anon.26 = type { ptr, ptr }
%struct.anon.27 = type { i32, ptr, i32, i32, ptr, ptr, ptr, ptr }
%struct.anon.28 = type { i32, ptr, i32, i32, i32, i32, i32, ptr, ptr }
%struct.anon.29 = type { i32, ptr, i32, i32, i32, i32, ptr, ptr, ptr }
%struct.anon.30 = type { i32, ptr, i32, i32, i32, i32, ptr, ptr, ptr, ptr }
%struct._GLFWlibraryNull = type { i32, i32, ptr, ptr, [121 x i16], [349 x i8] }
%struct._GLFWlibraryGLX = type { i32, i32, i32, i32, ptr, ptr, ptr, ptr, ptr, ptr, ptr, ptr, ptr, ptr, ptr, ptr, ptr, ptr, ptr, ptr, ptr, ptr, ptr, ptr, i32, i32, i32, i32, i32, i32, i32, i32, i32, i32, i32, i32 }
%struct._GLFWlibraryLinux = type { i32, i32, %struct.re_pattern_buffer, i32, i32 }
%struct.re_pattern_buffer = type { ptr, i64, i64, i64, ptr, ptr, i64, i8 }

@_glfw = external global %struct._GLFWlibrary, align 8
@.str.33 = private unnamed_addr constant [30 x i8] c"X11: Platform not initialized\00", align 1

; Function Attrs: nounwind uwtable
define ptr @glfwGetX11Display() #0 {
  %1 = alloca ptr, align 8
  %2 = load i32, ptr @_glfw, align 8, !tbaa !487
  %3 = icmp ne i32 %2, 0
  br i1 %3, label %5, label %4

4:                                                ; preds = %0
  call void (i32, ptr, ...) @_glfwInputError(i32 noundef 65537, ptr noundef null)
  store ptr null, ptr %1, align 8
  br label %11

5:                                                ; preds = %0
  %6 = load i32, ptr getelementptr inbounds nuw (%struct._GLFWlibrary, ptr @_glfw, i32 0, i32 2), align 8, !tbaa !488
  %7 = icmp ne i32 %6, 393220
  br i1 %7, label %8, label %9

8:                                                ; preds = %5
  call void (i32, ptr, ...) @_glfwInputError(i32 noundef 65550, ptr noundef @.str.33)
  store ptr null, ptr %1, align 8
  br label %11

9:                                                ; preds = %5
  %10 = load ptr, ptr getelementptr inbounds nuw (%struct._GLFWlibrary, ptr @_glfw, i32 0, i32 22), align 8, !tbaa !96
  store ptr %10, ptr %1, align 8
  br label %11

11:                                               ; preds = %9, %8, %4
  %12 = load ptr, ptr %1, align 8
  ret ptr %12
}