; Function Attrs: nounwind uwtable
define ptr @glfwGetX11Display() local_unnamed_addr #0 {
  %1 = load i32, ptr @_glfw, align 8, !tbaa !450
  %.not = icmp eq i32 %1, 0
  br i1 %.not, label %2, label %3

2:                                                ; preds = %0
  tail call void (i32, ptr, ...) @_glfwInputError(i32 noundef 65537, ptr noundef null) #17
  br label %8

3:                                                ; preds = %0
  %4 = load i32, ptr getelementptr inbounds nuw (i8, ptr @_glfw, i64 40), align 8, !tbaa !451
  %.not1 = icmp eq i32 %4, 393220
  br i1 %.not1, label %6, label %5

5:                                                ; preds = %3
  tail call void (i32, ptr, ...) @_glfwInputError(i32 noundef 65550, ptr noundef nonnull @.str.33) #17
  br label %8

6:                                                ; preds = %3
  %7 = load ptr, ptr getelementptr inbounds nuw (i8, ptr @_glfw, i64 137840), align 8, !tbaa !93
  br label %8

8:                                                ; preds = %6, %5, %2
  %.0 = phi ptr [ null, %5 ], [ %7, %6 ], [ null, %2 ]
  ret ptr %.0
}